target datalayout = "e-m:e-p270:32:32-p271:32:32-p272:64:64-i64:64-i128:128-f80:128-n8:16:32:64-S128"
target triple = "x86_64-pc-linux-gnu"

%struct.expert_field = type { i32, i32 }
%struct._packet_info = type { ptr, ptr, i32, i32, %struct.nstime_t, %struct.nstime_t, %struct.nstime_t, i8, ptr, ptr, ptr, ptr, %struct._address, %struct._address, %struct._address, %struct._address, %struct._address, %struct._address, i32, ptr, i8, [3 x i8], %struct.anon, i32, i32, i32, i32, ptr, i8, ptr, ptr, i16, i16, i32, i32, i16, i32, i32, ptr, ptr, ptr, i8, i8, i16, i16, i16, i32, i16, i16, ptr, ptr, ptr, ptr, ptr, i32, i32 }
%struct.nstime_t = type { i64, i32 }
%struct._address = type { i32, i32, ptr, ptr }
%struct.anon = type { i8, [3 x i8] }

@hf_igrp_update = internal global i32 0, align 4
@hf_igrp_as = internal global i32 0, align 4
@hf_igrp_version = internal global i32 0, align 4
@hf_igrp_command = internal global i32 0, align 4
@hf_igrp_interior_routes = internal global i32 0, align 4
@hf_igrp_system_routes = internal global i32 0, align 4
@hf_igrp_exterior_routes = internal global i32 0, align 4
@hf_igrp_checksum = internal global i32 0, align 4
@ett_igrp = internal global i32 0, align 4
@ett_igrp_vektor = internal global i32 0, align 4
@ei_igrp_version = internal global %struct.expert_field zeroinitializer, align 4
@.str.35 = private unnamed_addr constant [5 x i8] c"IGRP\00", align 1
@proto_igrp = internal global i32 0, align 4
@.str.38 = private unnamed_addr constant [9 x i8] c"Response\00", align 1
@.str.39 = private unnamed_addr constant [8 x i8] c"Request\00", align 1
@.str.40 = private unnamed_addr constant [26 x i8] c"Unknown version or opcode\00", align 1
@.str.41 = private unnamed_addr constant [11 x i8] c"Cisco IGRP\00", align 1
@.str.42 = private unnamed_addr constant [12 x i8] c" (Response)\00", align 1
@.str.43 = private unnamed_addr constant [11 x i8] c" (Request)\00", align 1

; Function Attrs: null_pointer_is_valid sspstrong uwtable
define internal i32 @dissect_igrp(ptr noundef %0, ptr noundef %1, ptr noundef %2, ptr noundef %3) #0 {
  %5 = alloca ptr, align 8
  %6 = alloca ptr, align 8
  %7 = alloca ptr, align 8
  %8 = alloca ptr, align 8
  %9 = alloca i8, align 1
  %10 = alloca i8, align 1
  %11 = alloca i8, align 1
  %12 = alloca i8, align 1
  %13 = alloca i32, align 4
  %14 = alloca i16, align 2
  %15 = alloca i16, align 2
  %16 = alloca i16, align 2
  %17 = alloca ptr, align 8
  %18 = alloca ptr, align 8
  %19 = alloca ptr, align 8
  %20 = alloca ptr, align 8
  %21 = alloca ptr, align 8
  store ptr %0, ptr %5, align 8
  store ptr %1, ptr %6, align 8
  store ptr %2, ptr %7, align 8
  store ptr %3, ptr %8, align 8
  call void @llvm.lifetime.start.p0(i64 1, ptr %9) #4
  call void @llvm.lifetime.start.p0(i64 1, ptr %10) #4
  call void @llvm.lifetime.start.p0(i64 1, ptr %11) #4
  call void @llvm.lifetime.start.p0(i64 1, ptr %12) #4
  call void @llvm.lifetime.start.p0(i64 4, ptr %13) #4
  store i32 12, ptr %13, align 4
  call void @llvm.lifetime.start.p0(i64 2, ptr %14) #4
  call void @llvm.lifetime.start.p0(i64 2, ptr %15) #4
  call void @llvm.lifetime.start.p0(i64 2, ptr %16) #4
  call void @llvm.lifetime.start.p0(i64 8, ptr %17) #4
  call void @llvm.lifetime.start.p0(i64 8, ptr %18) #4
  call void @llvm.lifetime.start.p0(i64 8, ptr %19) #4
  call void @llvm.lifetime.start.p0(i64 8, ptr %20) #4
  call void @llvm.lifetime.start.p0(i64 8, ptr %21) #4
  %22 = load ptr, ptr %6, align 8
  %23 = getelementptr inbounds nuw %struct._packet_info, ptr %22, i32 0, i32 1
  %24 = load ptr, ptr %23, align 8
  call void @col_set_str(ptr noundef %24, i32 noundef 35, ptr noundef @.str.35)
  %25 = load ptr, ptr %6, align 8
  %26 = getelementptr inbounds nuw %struct._packet_info, ptr %25, i32 0, i32 1
  %27 = load ptr, ptr %26, align 8
  call void @col_clear(ptr noundef %27, i32 noundef 25)
  %28 = load ptr, ptr %5, align 8
  %29 = call zeroext i8 @tvb_get_uint8(ptr noundef %28, i32 noundef 0)
  store i8 %29, ptr %9, align 1
  %30 = load i8, ptr %9, align 1
  %31 = zext i8 %30 to i32
  switch i32 %31, label %40 [
    i32 17, label %32
    i32 18, label %36
  ]

32:                                               ; preds = %4
  %33 = load ptr, ptr %6, align 8
  %34 = getelementptr inbounds nuw %struct._packet_info, ptr %33, i32 0, i32 1
  %35 = load ptr, ptr %34, align 8
  call void @col_set_str(ptr noundef %35, i32 noundef 25, ptr noundef @.str.38)
  br label %44

36:                                               ; preds = %4
  %37 = load ptr, ptr %6, align 8
  %38 = getelementptr inbounds nuw %struct._packet_info, ptr %37, i32 0, i32 1
  %39 = load ptr, ptr %38, align 8
  call void @col_set_str(ptr noundef %39, i32 noundef 25, ptr noundef @.str.39)
  br label %44

40:                                               ; preds = %4
  %41 = load ptr, ptr %6, align 8
  %42 = getelementptr inbounds nuw %struct._packet_info, ptr %41, i32 0, i32 1
  %43 = load ptr, ptr %42, align 8
  call void @col_set_str(ptr noundef %43, i32 noundef 25, ptr noundef @.str.40)
  br label %44

44:                                               ; preds = %40, %36, %32
  %45 = load ptr, ptr %7, align 8
  %46 = icmp ne ptr %45, null
  br i1 %46, label %47, label %195

47:                                               ; preds = %44
  %48 = load ptr, ptr %7, align 8
  %49 = load i32, ptr @proto_igrp, align 4
  %50 = load ptr, ptr %5, align 8
  %51 = call ptr (ptr, i32, ptr, i32, i32, ptr, ...) @proto_tree_add_protocol_format(ptr noundef %48, i32 noundef %49, ptr noundef %50, i32 noundef 0, i32 noundef -1, ptr noundef @.str.41)
  store ptr %51, ptr %18, align 8
  %52 = load ptr, ptr %18, align 8
  %53 = load i32, ptr @ett_igrp, align 4
  %54 = call ptr @proto_item_add_subtree(ptr noundef %52, i32 noundef %53)
  store ptr %54, ptr %19, align 8
  %55 = load i8, ptr %9, align 1
  %56 = zext i8 %55 to i32
  %57 = and i32 %56, 240
  %58 = ashr i32 %57, 4
  %59 = trunc i32 %58 to i8
  store i8 %59, ptr %10, align 1
  %60 = load i8, ptr %9, align 1
  %61 = zext i8 %60 to i32
  %62 = and i32 %61, 15
  %63 = trunc i32 %62 to i8
  store i8 %63, ptr %11, align 1
  %64 = load ptr, ptr %19, align 8
  %65 = load i32, ptr @hf_igrp_version, align 4
  %66 = load ptr, ptr %5, align 8
  %67 = call ptr @proto_tree_add_item(ptr noundef %64, i32 noundef %65, ptr noundef %66, i32 noundef 0, i32 noundef 1, i32 noundef 0)
  store ptr %67, ptr %18, align 8
  %68 = load i8, ptr %10, align 1
  %69 = zext i8 %68 to i32
  %70 = icmp ne i32 %69, 1
  br i1 %70, label %71, label %75

71:                                               ; preds = %47
  %72 = load ptr, ptr %6, align 8
  %73 = load ptr, ptr %18, align 8
  %74 = call ptr @expert_add_info(ptr noundef %72, ptr noundef %73, ptr noundef @ei_igrp_version)
  br label %75

75:                                               ; preds = %71, %47
  %76 = load ptr, ptr %19, align 8
  %77 = load i32, ptr @hf_igrp_command, align 4
  %78 = load ptr, ptr %5, align 8
  %79 = call ptr @proto_tree_add_item(ptr noundef %76, i32 noundef %77, ptr noundef %78, i32 noundef 0, i32 noundef 1, i32 noundef 0)
  store ptr %79, ptr %18, align 8
  %80 = load i8, ptr %11, align 1
  %81 = zext i8 %80 to i32
  %82 = icmp eq i32 %81, 1
  br i1 %82, label %83, label %85

83:                                               ; preds = %75
  %84 = load ptr, ptr %18, align 8
  call void (ptr, ptr, ...) @proto_item_append_text(ptr noundef %84, ptr noundef @.str.42)
  br label %87

85:                                               ; preds = %75
  %86 = load ptr, ptr %18, align 8
  call void (ptr, ptr, ...) @proto_item_append_text(ptr noundef %86, ptr noundef @.str.43)
  br label %87

87:                                               ; preds = %85, %83
  %88 = load ptr, ptr %19, align 8
  %89 = load i32, ptr @hf_igrp_update, align 4
  %90 = load ptr, ptr %5, align 8
  %91 = call ptr @proto_tree_add_item(ptr noundef %88, i32 noundef %89, ptr noundef %90, i32 noundef 1, i32 noundef 1, i32 noundef 0)
  %92 = load ptr, ptr %19, align 8
  %93 = load i32, ptr @hf_igrp_as, align 4
  %94 = load ptr, ptr %5, align 8
  %95 = call ptr @proto_tree_add_item(ptr noundef %92, i32 noundef %93, ptr noundef %94, i32 noundef 2, i32 noundef 2, i32 noundef 0)
  %96 = load ptr, ptr %5, align 8
  %97 = call zeroext i16 @tvb_get_ntohs(ptr noundef %96, i32 noundef 4)
  store i16 %97, ptr %14, align 2
  %98 = load ptr, ptr %5, align 8
  %99 = call zeroext i16 @tvb_get_ntohs(ptr noundef %98, i32 noundef 6)
  store i16 %99, ptr %15, align 2
  %100 = load ptr, ptr %5, align 8
  %101 = call zeroext i16 @tvb_get_ntohs(ptr noundef %100, i32 noundef 8)
  store i16 %101, ptr %16, align 2
  %102 = load ptr, ptr %6, align 8
  %103 = getelementptr inbounds nuw %struct._packet_info, ptr %102, i32 0, i32 14
  %104 = getelementptr inbounds nuw %struct._address, ptr %103, i32 0, i32 0
  %105 = load i32, ptr %104, align 8
  %106 = icmp eq i32 %105, 2
  br i1 %106, label %107, label %115

107:                                              ; preds = %87
  %108 = load ptr, ptr %6, align 8
  %109 = getelementptr inbounds nuw %struct._packet_info, ptr %108, i32 0, i32 14
  %110 = getelementptr inbounds nuw %struct._address, ptr %109, i32 0, i32 2
  %111 = load ptr, ptr %110, align 8
  store ptr %111, ptr %17, align 8
  %112 = load ptr, ptr %17, align 8
  %113 = getelementptr i8, ptr %112, i64 0
  %114 = load i8, ptr %113, align 1
  store i8 %114, ptr %12, align 1
  br label %116

115:                                              ; preds = %87
  store i8 0, ptr %12, align 1
  br label %116

116:                                              ; preds = %115, %107
  %117 = load ptr, ptr %19, align 8
  %118 = load i32, ptr @hf_igrp_interior_routes, align 4
  %119 = load ptr, ptr %5, align 8
  %120 = call ptr @proto_tree_add_item(ptr noundef %117, i32 noundef %118, ptr noundef %119, i32 noundef 4, i32 noundef 2, i32 noundef 0)
  store ptr %120, ptr %18, align 8
  br label %121

121:                                              ; preds = %138, %116
  %122 = load i16, ptr %14, align 2
  %123 = zext i16 %122 to i32
  %124 = icmp sgt i32 %123, 0
  br i1 %124, label %125, label %141

125:                                              ; preds = %121
  %126 = load ptr, ptr %18, align 8
  %127 = load i32, ptr @ett_igrp_vektor, align 4
  %128 = call ptr @proto_item_add_subtree(ptr noundef %126, i32 noundef %127)
  store ptr %128, ptr %20, align 8
  %129 = load ptr, ptr %5, align 8
  %130 = load i32, ptr %13, align 4
  %131 = call ptr @tvb_new_subset_length_caplen(ptr noundef %129, i32 noundef %130, i32 noundef 14, i32 noundef -1)
  store ptr %131, ptr %21, align 8
  %132 = load ptr, ptr %6, align 8
  %133 = load ptr, ptr %21, align 8
  %134 = load ptr, ptr %20, align 8
  %135 = load i8, ptr %12, align 1
  call void @dissect_vektor_igrp(ptr noundef %132, ptr noundef %133, ptr noundef %134, i8 noundef zeroext %135)
  %136 = load i32, ptr %13, align 4
  %137 = add i32 %136, 14
  store i32 %137, ptr %13, align 4
  br label %138

138:                                              ; preds = %125
  %139 = load i16, ptr %14, align 2
  %140 = add i16 %139, -1
  store i16 %140, ptr %14, align 2
  br label %121, !llvm.loop !6

141:                                              ; preds = %121
  %142 = load ptr, ptr %19, align 8
  %143 = load i32, ptr @hf_igrp_system_routes, align 4
  %144 = load ptr, ptr %5, align 8
  %145 = call ptr @proto_tree_add_item(ptr noundef %142, i32 noundef %143, ptr noundef %144, i32 noundef 6, i32 noundef 2, i32 noundef 0)
  store ptr %145, ptr %18, align 8
  br label %146

146:                                              ; preds = %162, %141
  %147 = load i16, ptr %15, align 2
  %148 = zext i16 %147 to i32
  %149 = icmp sgt i32 %148, 0
  br i1 %149, label %150, label %165

150:                                              ; preds = %146
  %151 = load ptr, ptr %18, align 8
  %152 = load i32, ptr @ett_igrp_vektor, align 4
  %153 = call ptr @proto_item_add_subtree(ptr noundef %151, i32 noundef %152)
  store ptr %153, ptr %20, align 8
  %154 = load ptr, ptr %5, align 8
  %155 = load i32, ptr %13, align 4
  %156 = call ptr @tvb_new_subset_length_caplen(ptr noundef %154, i32 noundef %155, i32 noundef 14, i32 noundef -1)
  store ptr %156, ptr %21, align 8
  %157 = load ptr, ptr %6, align 8
  %158 = load ptr, ptr %21, align 8
  %159 = load ptr, ptr %20, align 8
  call void @dissect_vektor_igrp(ptr noundef %157, ptr noundef %158, ptr noundef %159, i8 noundef zeroext 0)
  %160 = load i32, ptr %13, align 4
  %161 = add i32 %160, 14
  store i32 %161, ptr %13, align 4
  br label %162

162:                                              ; preds = %150
  %163 = load i16, ptr %15, align 2
  %164 = add i16 %163, -1
  store i16 %164, ptr %15, align 2
  br label %146, !llvm.loop !8

165:                                              ; preds = %146
  %166 = load ptr, ptr %19, align 8
  %167 = load i32, ptr @hf_igrp_exterior_routes, align 4
  %168 = load ptr, ptr %5, align 8
  %169 = call ptr @proto_tree_add_item(ptr noundef %166, i32 noundef %167, ptr noundef %168, i32 noundef 8, i32 noundef 2, i32 noundef 0)
  store ptr %169, ptr %18, align 8
  br label %170

170:                                              ; preds = %186, %165
  %171 = load i16, ptr %16, align 2
  %172 = zext i16 %171 to i32
  %173 = icmp sgt i32 %172, 0
  br i1 %173, label %174, label %189

174:                                              ; preds = %170
  %175 = load ptr, ptr %18, align 8
  %176 = load i32, ptr @ett_igrp_vektor, align 4
  %177 = call ptr @proto_item_add_subtree(ptr noundef %175, i32 noundef %176)
  store ptr %177, ptr %20, align 8
  %178 = load ptr, ptr %5, align 8
  %179 = load i32, ptr %13, align 4
  %180 = call ptr @tvb_new_subset_length_caplen(ptr noundef %178, i32 noundef %179, i32 noundef 14, i32 noundef -1)
  store ptr %180, ptr %21, align 8
  %181 = load ptr, ptr %6, align 8
  %182 = load ptr, ptr %21, align 8
  %183 = load ptr, ptr %20, align 8
  call void @dissect_vektor_igrp(ptr noundef %181, ptr noundef %182, ptr noundef %183, i8 noundef zeroext 0)
  %184 = load i32, ptr %13, align 4
  %185 = add i32 %184, 14
  store i32 %185, ptr %13, align 4
  br label %186

186:                                              ; preds = %174
  %187 = load i16, ptr %16, align 2
  %188 = add i16 %187, -1
  store i16 %188, ptr %16, align 2
  br label %170, !llvm.loop !9

189:                                              ; preds = %170
  %190 = load ptr, ptr %19, align 8
  %191 = load ptr, ptr %5, align 8
  %192 = load i32, ptr @hf_igrp_checksum, align 4
  %193 = load ptr, ptr %6, align 8
  %194 = call ptr @proto_tree_add_checksum(ptr noundef %190, ptr noundef %191, i32 noundef 10, i32 noundef %192, i32 noundef -1, ptr noundef null, ptr noundef %193, i32 noundef 0, i32 noundef 0, i32 noundef 0)
  br label %195

195:                                              ; preds = %189, %44
  %196 = load ptr, ptr %5, align 8
  %197 = call i32 @tvb_captured_length(ptr noundef %196)
  call void @llvm.lifetime.end.p0(i64 8, ptr %21) #4
  call void @llvm.lifetime.end.p0(i64 8, ptr %20) #4
  call void @llvm.lifetime.end.p0(i64 8, ptr %19) #4
  call void @llvm.lifetime.end.p0(i64 8, ptr %18) #4
  call void @llvm.lifetime.end.p0(i64 8, ptr %17) #4
  call void @llvm.lifetime.end.p0(i64 2, ptr %16) #4
  call void @llvm.lifetime.end.p0(i64 2, ptr %15) #4
  call void @llvm.lifetime.end.p0(i64 2, ptr %14) #4
  call void @llvm.lifetime.end.p0(i64 4, ptr %13) #4
  call void @llvm.lifetime.end.p0(i64 1, ptr %12) #4
  call void @llvm.lifetime.end.p0(i64 1, ptr %11) #4
  call void @llvm.lifetime.end.p0(i64 1, ptr %10) #4
  call void @llvm.lifetime.end.p0(i64 1, ptr %9) #4
  ret i32 %197
}