; Function Attrs: null_pointer_is_valid sspstrong uwtable
define internal i32 @dissect_igrp(ptr noundef %0, ptr noundef %1, ptr noundef %2, ptr readnone captures(none) %3) #0 {
  %5 = getelementptr inbounds nuw i8, ptr %1, i64 8
  %6 = load ptr, ptr %5, align 8
  tail call void @col_set_str(ptr noundef %6, i32 noundef 35, ptr noundef nonnull @.str.35)
  %7 = load ptr, ptr %5, align 8
  tail call void @col_clear(ptr noundef %7, i32 noundef 25)
  %8 = tail call zeroext i8 @tvb_get_uint8(ptr noundef %0, i32 noundef 0)
  %9 = load ptr, ptr %5, align 8
  %switch.selectcmp = icmp eq i8 %8, 18
  %switch.select = select i1 %switch.selectcmp, ptr @.str.39, ptr @.str.40
  %switch.selectcmp97 = icmp eq i8 %8, 17
  %switch.select98 = select i1 %switch.selectcmp97, ptr @.str.38, ptr %switch.select
  tail call void @col_set_str(ptr noundef %9, i32 noundef 25, ptr noundef nonnull %switch.select98)
  %.not = icmp eq ptr %2, null
  br i1 %.not, label %62, label %10

10:                                               ; preds = %4
  %11 = load i32, ptr @proto_igrp, align 4
  %12 = tail call ptr (ptr, i32, ptr, i32, i32, ptr, ...) @proto_tree_add_protocol_format(ptr noundef nonnull %2, i32 noundef %11, ptr noundef %0, i32 noundef 0, i32 noundef -1, ptr noundef nonnull @.str.41)
  %13 = load i32, ptr @ett_igrp, align 4
  %14 = tail call ptr @proto_item_add_subtree(ptr noundef %12, i32 noundef %13)
  %15 = and i8 %8, 15
  %16 = load i32, ptr @hf_igrp_version, align 4
  %17 = tail call ptr @proto_tree_add_item(ptr noundef %14, i32 noundef %16, ptr noundef %0, i32 noundef 0, i32 noundef 1, i32 noundef 0)
  %.mask = and i8 %8, -16
  %.not75 = icmp eq i8 %.mask, 16
  br i1 %.not75, label %20, label %18

18:                                               ; preds = %10
  %19 = tail call ptr @expert_add_info(ptr noundef %1, ptr noundef %17, ptr noundef nonnull @ei_igrp_version)
  br label %20

20:                                               ; preds = %18, %10
  %21 = load i32, ptr @hf_igrp_command, align 4
  %22 = tail call ptr @proto_tree_add_item(ptr noundef %14, i32 noundef %21, ptr noundef %0, i32 noundef 0, i32 noundef 1, i32 noundef 0)
  %23 = icmp eq i8 %15, 1
  %.str.42..str.43 = select i1 %23, ptr @.str.42, ptr @.str.43
  tail call void (ptr, ptr, ...) @proto_item_append_text(ptr noundef %22, ptr noundef nonnull %.str.42..str.43)
  %24 = load i32, ptr @hf_igrp_update, align 4
  %25 = tail call ptr @proto_tree_add_item(ptr noundef %14, i32 noundef %24, ptr noundef %0, i32 noundef 1, i32 noundef 1, i32 noundef 0)
  %26 = load i32, ptr @hf_igrp_as, align 4
  %27 = tail call ptr @proto_tree_add_item(ptr noundef %14, i32 noundef %26, ptr noundef %0, i32 noundef 2, i32 noundef 2, i32 noundef 0)
  %28 = tail call zeroext i16 @tvb_get_ntohs(ptr noundef %0, i32 noundef 4)
  %29 = tail call zeroext i16 @tvb_get_ntohs(ptr noundef %0, i32 noundef 6)
  %30 = tail call zeroext i16 @tvb_get_ntohs(ptr noundef %0, i32 noundef 8)
  %31 = getelementptr inbounds nuw i8, ptr %1, i64 160
  %32 = load i32, ptr %31, align 8
  %33 = icmp eq i32 %32, 2
  br i1 %33, label %34, label %38

34:                                               ; preds = %20
  %35 = getelementptr inbounds nuw i8, ptr %1, i64 168
  %36 = load ptr, ptr %35, align 8
  %37 = load i8, ptr %36, align 1
  br label %38

38:                                               ; preds = %20, %34
  %.0 = phi i8 [ %37, %34 ], [ 0, %20 ]
  %39 = load i32, ptr @hf_igrp_interior_routes, align 4
  %40 = tail call ptr @proto_tree_add_item(ptr noundef %14, i32 noundef %39, ptr noundef %0, i32 noundef 4, i32 noundef 2, i32 noundef 0)
  %.not7679 = icmp eq i16 %28, 0
  br i1 %.not7679, label %._crit_edge, label %.lr.ph

.lr.ph:                                           ; preds = %38, %.lr.ph
  %.07081 = phi i32 [ %44, %.lr.ph ], [ 12, %38 ]
  %.07380 = phi i16 [ %45, %.lr.ph ], [ %28, %38 ]
  %41 = load i32, ptr @ett_igrp_vektor, align 4
  %42 = tail call ptr @proto_item_add_subtree(ptr noundef %40, i32 noundef %41)
  %43 = tail call ptr @tvb_new_subset_length_caplen(ptr noundef %0, i32 noundef %.07081, i32 noundef 14, i32 noundef -1)
  tail call fastcc void @dissect_vektor_igrp(ptr noundef %1, ptr noundef %43, ptr noundef %42, i8 noundef zeroext %.0)
  %44 = add nuw nsw i32 %.07081, 14
  %45 = add i16 %.07380, -1
  %.not76 = icmp eq i16 %45, 0
  br i1 %.not76, label %._crit_edge, label %.lr.ph, !llvm.loop !6

._crit_edge:                                      ; preds = %.lr.ph, %38
  %.070.lcssa = phi i32 [ 12, %38 ], [ %44, %.lr.ph ]
  %46 = load i32, ptr @hf_igrp_system_routes, align 4
  %47 = tail call ptr @proto_tree_add_item(ptr noundef %14, i32 noundef %46, ptr noundef %0, i32 noundef 6, i32 noundef 2, i32 noundef 0)
  %.not7782 = icmp eq i16 %29, 0
  br i1 %.not7782, label %._crit_edge87, label %.lr.ph86

.lr.ph86:                                         ; preds = %._crit_edge, %.lr.ph86
  %.184 = phi i32 [ %51, %.lr.ph86 ], [ %.070.lcssa, %._crit_edge ]
  %.07283 = phi i16 [ %52, %.lr.ph86 ], [ %29, %._crit_edge ]
  %48 = load i32, ptr @ett_igrp_vektor, align 4
  %49 = tail call ptr @proto_item_add_subtree(ptr noundef %47, i32 noundef %48)
  %50 = tail call ptr @tvb_new_subset_length_caplen(ptr noundef %0, i32 noundef %.184, i32 noundef 14, i32 noundef -1)
  tail call fastcc void @dissect_vektor_igrp(ptr noundef %1, ptr noundef %50, ptr noundef %49, i8 noundef zeroext 0)
  %51 = add nuw nsw i32 %.184, 14
  %52 = add i16 %.07283, -1
  %.not77 = icmp eq i16 %52, 0
  br i1 %.not77, label %._crit_edge87, label %.lr.ph86, !llvm.loop !8

._crit_edge87:                                    ; preds = %.lr.ph86, %._crit_edge
  %.1.lcssa = phi i32 [ %.070.lcssa, %._crit_edge ], [ %51, %.lr.ph86 ]
  %53 = load i32, ptr @hf_igrp_exterior_routes, align 4
  %54 = tail call ptr @proto_tree_add_item(ptr noundef %14, i32 noundef %53, ptr noundef %0, i32 noundef 8, i32 noundef 2, i32 noundef 0)
  %.not7889 = icmp eq i16 %30, 0
  br i1 %.not7889, label %._crit_edge94, label %.lr.ph93

.lr.ph93:                                         ; preds = %._crit_edge87, %.lr.ph93
  %.291 = phi i32 [ %58, %.lr.ph93 ], [ %.1.lcssa, %._crit_edge87 ]
  %.07190 = phi i16 [ %59, %.lr.ph93 ], [ %30, %._crit_edge87 ]
  %55 = load i32, ptr @ett_igrp_vektor, align 4
  %56 = tail call ptr @proto_item_add_subtree(ptr noundef %54, i32 noundef %55)
  %57 = tail call ptr @tvb_new_subset_length_caplen(ptr noundef %0, i32 noundef %.291, i32 noundef 14, i32 noundef -1)
  tail call fastcc void @dissect_vektor_igrp(ptr noundef %1, ptr noundef %57, ptr noundef %56, i8 noundef zeroext 0)
  %58 = add nuw nsw i32 %.291, 14
  %59 = add i16 %.07190, -1
  %.not78 = icmp eq i16 %59, 0
  br i1 %.not78, label %._crit_edge94, label %.lr.ph93, !llvm.loop !9

._crit_edge94:                                    ; preds = %.lr.ph93, %._crit_edge87
  %60 = load i32, ptr @hf_igrp_checksum, align 4
  %61 = tail call ptr @proto_tree_add_checksum(ptr noundef %14, ptr noundef %0, i32 noundef 10, i32 noundef %60, i32 noundef -1, ptr noundef null, ptr noundef %1, i32 noundef 0, i32 noundef 0, i32 noundef 0)
  br label %62

62:                                               ; preds = %._crit_edge94, %4
  %63 = tail call i32 @tvb_captured_length(ptr noundef %0)
  ret i32 %63
}